(dp1
S'getcdlist BOOKINSSTS'
p2
(F1333946415.6559999
I3600
(lp3
(V0
V\u53ef\u501f
tp4
a(V1
V\u5df2\u501f
tp5
a(V2
V\u4e22\u5931
tp6
atp7
sS'getcdlist PUB'
p8
(F1333946415.6559999
I3600
(lp9
(VP1
VPUB1
tp10
a(VP2
VPUB2
tp11
atp12
sS'getcdlist PLACE'
p13
(F1333946415.6559999
I3600
(lp14
(VP1
V\u5730\u65b91
tp15
a(VP2
V\u5730\u65b92
tp16
atp17
sS'getcdlist CAT'
p18
(F1333946415.6559999
I3600
(lp19
(VC1
VCAT1
tp20
a(VC2
VCAT2
tp21
atp22
sS'getcdlist CARDSTS'
p23
(F1333945970.312
I3600
(lp24
(V0
V\u6709\u6548
tp25
a(V1
V\u6302\u5931
tp26
a(V2
V\u6ce8\u9500
tp27
atp28
sS'getcdlist GENDER'
p29
(F1333945970.312
I3600
(lp30
(VF
V\u5973
tp31
a(VM
V\u7537
tp32
atp33
sS'getcdlist ORG'
p34
(F1333945970.312
I3600
(lp35
(VMD
V\u4e2d\u95f4\u5e26
tp36
a(VSD
V\u81ea\u8fbe\u5eb7
tp37
atp38
s.